; Function Attrs: nounwind sspstrong uwtable
define internal range(i32 0, 3) i32 @symbols_i(i64 noundef %0, i64 noundef %1, i64 noundef %2) #0 {
  %4 = and i64 %1, 255
  %5 = icmp eq i64 %4, 12
  br i1 %5, label %6, label %8

6:                                                ; preds = %3
  %7 = tail call i64 @rb_ary_push(i64 noundef %2, i64 noundef %1) #19
  br label %32

8:                                                ; preds = %3
  %9 = icmp eq i64 %1, 0
  %10 = and i64 %1, 7
  %11 = icmp ne i64 %10, 0
  %12 = or i1 %9, %11
  br i1 %12, label %RB_DYNAMIC_SYM_P.exit.thread, label %RB_DYNAMIC_SYM_P.exit

RB_DYNAMIC_SYM_P.exit:                            ; preds = %8
  %13 = inttoptr i64 %1 to ptr
  %14 = load i64, ptr %13, align 8, !tbaa !26
  %15 = and i64 %14, 31
  %16 = icmp eq i64 %15, 20
  br i1 %16, label %22, label %RB_DYNAMIC_SYM_P.exit.thread

RB_DYNAMIC_SYM_P.exit.thread:                     ; preds = %8, %RB_DYNAMIC_SYM_P.exit
  %17 = inttoptr i64 %0 to ptr
  %18 = load i64, ptr %17, align 8, !tbaa !26, !noalias !79
  %19 = and i64 %18, 8192
  %.not.i.i = icmp eq i64 %19, 0
  %20 = getelementptr inbounds nuw i8, ptr %17, i64 24
  br i1 %.not.i.i, label %RSTRING_PTR.exit, label %21

21:                                               ; preds = %RB_DYNAMIC_SYM_P.exit.thread
  %.sroa.2.0.copyload.i = load ptr, ptr %20, align 8
  br label %RSTRING_PTR.exit

RSTRING_PTR.exit:                                 ; preds = %RB_DYNAMIC_SYM_P.exit.thread, %21
  %.sroa.2.0.i = phi ptr [ %.sroa.2.0.copyload.i, %21 ], [ %20, %RB_DYNAMIC_SYM_P.exit.thread ]
  tail call void (ptr, ...) @rb_bug(ptr noundef nonnull @.str.111, ptr noundef %.sroa.2.0.i) #22
  unreachable

22:                                               ; preds = %RB_DYNAMIC_SYM_P.exit
  %23 = getelementptr inbounds nuw i8, ptr %13, i64 32
  %24 = load i64, ptr %23, align 8, !tbaa !31
  %25 = and i64 %24, -15
  %.not = icmp eq i64 %25, 0
  br i1 %.not, label %26, label %30

26:                                               ; preds = %22
  %27 = tail call i32 @rb_objspace_garbage_object_p(i64 noundef %1) #19
  %.not13 = icmp eq i32 %27, 0
  br i1 %.not13, label %30, label %28

28:                                               ; preds = %26
  %29 = getelementptr inbounds nuw i8, ptr %13, i64 24
  store i64 0, ptr %29, align 8, !tbaa !29
  br label %32

30:                                               ; preds = %26, %22
  %31 = tail call i64 @rb_ary_push(i64 noundef %2, i64 noundef %1) #19
  br label %32

32:                                               ; preds = %30, %28, %6
  %.0 = phi i32 [ 0, %6 ], [ 0, %30 ], [ 2, %28 ]
  ret i32 %.0
}